; Function Attrs: null_pointer_is_valid sspstrong uwtable
define void @prefs_register_uint_preference(ptr noundef captures(address_is_null) %0, ptr noundef %1, ptr noundef %2, ptr noundef %3, i32 noundef %4, ptr noundef %5) local_unnamed_addr #1 {
  %7 = tail call fastcc ptr @register_preference(ptr noundef %0, ptr noundef %1, ptr noundef %2, ptr noundef %3, i32 noundef 1)
  %8 = getelementptr inbounds nuw i8, ptr %7, i64 40
  store ptr %5, ptr %8, align 8
  %9 = load i32, ptr %5, align 4
  %10 = getelementptr inbounds nuw i8, ptr %7, i64 56
  store i32 %9, ptr %10, align 8
  %11 = getelementptr inbounds nuw i8, ptr %7, i64 64
  store i32 %4, ptr %11, align 8
  ret void
}